; Function Attrs: nounwind uwtable
define internal noundef i32 @_foreach_cluster_list_to_str(ptr noundef readonly captures(none) %0, ptr noundef %1) #8 {
  %3 = load ptr, ptr %1, align 8
  %.not = icmp eq ptr %3, null
  %4 = select i1 %.not, ptr @.str.33, ptr @.str.32
  %5 = getelementptr inbounds nuw i8, ptr %0, i64 280
  %6 = load ptr, ptr %5, align 8
  tail call void (ptr, ptr, ...) @_xstrfmtcat(ptr noundef nonnull %1, ptr noundef nonnull @.str.31, ptr noundef nonnull %4, ptr noundef %6) #17
  ret i32 0
}